target datalayout = "e-m:e-p270:32:32-p271:32:32-p272:64:64-i64:64-i128:128-f80:128-n8:16:32:64-S128"
target triple = "x86_64-unknown-linux-gnu"

%"struct.std::thread::_State" = type { ptr }
%class.anon.420 = type { ptr }
%"struct.std::thread::_State_impl.421" = type { %"struct.std::thread::_State", %"struct.std::thread::_Invoker.422" }
%"struct.std::thread::_Invoker.422" = type { %"class.std::tuple.423" }
%"class.std::tuple.423" = type { %"struct.std::_Tuple_impl.424" }
%"struct.std::_Tuple_impl.424" = type { %"struct.std::_Head_base.425" }
%"struct.std::_Head_base.425" = type { %class.anon.420 }

; Function Attrs: mustprogress nounwind uwtable
define internal noundef nonnull align 8 dereferenceable(8) ptr @"_ZNSt10_Head_baseILm0EZZN12_GLOBAL__N_129Mutex_SignalExitedThread_Test8TestBodyEvENK3$_0clEvEUlvE_Lb0EE7_M_headERS4_"(ptr noundef nonnull align 8 dereferenceable(8) %__b) #7 align 2 {
entry:
  %__b.addr = alloca ptr, align 8
  store ptr %__b, ptr %__b.addr, align 8
  %0 = load ptr, ptr %__b.addr, align 8
  %_M_head_impl = getelementptr inbounds %"struct.std::_Head_base.425", ptr %0, i32 0, i32 0
  ret ptr %_M_head_impl
}

; Function Attrs: mustprogress uwtable
define internal void @"_ZZZN12_GLOBAL__N_129Mutex_SignalExitedThread_Test8TestBodyEvENK3$_0clEvENKUlvE_clEv"(ptr noundef nonnull align 8 dereferenceable(8) %this) #4 align 2 {
entry:
  %this.addr = alloca ptr, align 8
  store ptr %this, ptr %this.addr, align 8
  %this1 = load ptr, ptr %this.addr, align 8
  %0 = getelementptr inbounds %class.anon.420, ptr %this1, i32 0, i32 0
  %1 = load ptr, ptr %0, align 8
  call void @_ZN4absl5Mutex4LockEv(ptr noundef nonnull align 8 dereferenceable(8) %1)
  %2 = getelementptr inbounds %class.anon.420, ptr %this1, i32 0, i32 0
  %3 = load ptr, ptr %2, align 8
  call void @_ZN4absl5Mutex6UnlockEv(ptr noundef nonnull align 8 dereferenceable(8) %3)
  ret void
}

; Function Attrs: mustprogress nounwind uwtable
define internal noundef nonnull align 8 dereferenceable(8) ptr @"_ZNSt11_Tuple_implILm0EJZZN12_GLOBAL__N_129Mutex_SignalExitedThread_Test8TestBodyEvENK3$_0clEvEUlvE_EE7_M_headERS4_"(ptr noundef nonnull align 8 dereferenceable(8) %__t) #7 align 2 {
entry:
  %__t.addr = alloca ptr, align 8
  store ptr %__t, ptr %__t.addr, align 8
  %0 = load ptr, ptr %__t.addr, align 8
  %call = call noundef nonnull align 8 dereferenceable(8) ptr @"_ZNSt10_Head_baseILm0EZZN12_GLOBAL__N_129Mutex_SignalExitedThread_Test8TestBodyEvENK3$_0clEvEUlvE_Lb0EE7_M_headERS4_"(ptr noundef nonnull align 8 dereferenceable(8) %0) #3
  ret ptr %call
}

; Function Attrs: mustprogress uwtable
define internal void @"_ZSt13__invoke_implIvZZN12_GLOBAL__N_129Mutex_SignalExitedThread_Test8TestBodyEvENK3$_0clEvEUlvE_JEET_St14__invoke_otherOT0_DpOT1_"(ptr noundef nonnull align 8 dereferenceable(8) %__f) #4 {
entry:
  %__f.addr = alloca ptr, align 8
  store ptr %__f, ptr %__f.addr, align 8
  %0 = load ptr, ptr %__f.addr, align 8
  call void @"_ZZZN12_GLOBAL__N_129Mutex_SignalExitedThread_Test8TestBodyEvENK3$_0clEvENKUlvE_clEv"(ptr noundef nonnull align 8 dereferenceable(8) %0)
  ret void
}

; Function Attrs: mustprogress nounwind uwtable
define internal noundef nonnull align 8 dereferenceable(8) ptr @"_ZSt12__get_helperILm0EZZN12_GLOBAL__N_129Mutex_SignalExitedThread_Test8TestBodyEvENK3$_0clEvEUlvE_JEERT0_RSt11_Tuple_implIXT_EJS4_DpT1_EE"(ptr noundef nonnull align 8 dereferenceable(8) %__t) #7 {
entry:
  %__t.addr = alloca ptr, align 8
  store ptr %__t, ptr %__t.addr, align 8
  %0 = load ptr, ptr %__t.addr, align 8
  %call = call noundef nonnull align 8 dereferenceable(8) ptr @"_ZNSt11_Tuple_implILm0EJZZN12_GLOBAL__N_129Mutex_SignalExitedThread_Test8TestBodyEvENK3$_0clEvEUlvE_EE7_M_headERS4_"(ptr noundef nonnull align 8 dereferenceable(8) %0) #3
  ret ptr %call
}

; Function Attrs: mustprogress uwtable
define internal void @"_ZSt8__invokeIZZN12_GLOBAL__N_129Mutex_SignalExitedThread_Test8TestBodyEvENK3$_0clEvEUlvE_JEENSt15__invoke_resultIT_JDpT0_EE4typeEOS5_DpOS6_"(ptr noundef nonnull align 8 dereferenceable(8) %__fn) #4 {
entry:
  %__fn.addr = alloca ptr, align 8
  store ptr %__fn, ptr %__fn.addr, align 8
  %0 = load ptr, ptr %__fn.addr, align 8
  call void @"_ZSt13__invoke_implIvZZN12_GLOBAL__N_129Mutex_SignalExitedThread_Test8TestBodyEvENK3$_0clEvEUlvE_JEET_St14__invoke_otherOT0_DpOT1_"(ptr noundef nonnull align 8 dereferenceable(8) %0)
  ret void
}

; Function Attrs: mustprogress nounwind uwtable
define internal noundef nonnull align 8 dereferenceable(8) ptr @"_ZSt3getILm0EJZZN12_GLOBAL__N_129Mutex_SignalExitedThread_Test8TestBodyEvENK3$_0clEvEUlvE_EEONSt13tuple_elementIXT_ESt5tupleIJDpT0_EEE4typeEOS8_"(ptr noundef nonnull align 8 dereferenceable(8) %__t) #7 {
entry:
  %__t.addr = alloca ptr, align 8
  store ptr %__t, ptr %__t.addr, align 8
  %0 = load ptr, ptr %__t.addr, align 8
  %call = call noundef nonnull align 8 dereferenceable(8) ptr @"_ZSt12__get_helperILm0EZZN12_GLOBAL__N_129Mutex_SignalExitedThread_Test8TestBodyEvENK3$_0clEvEUlvE_JEERT0_RSt11_Tuple_implIXT_EJS4_DpT1_EE"(ptr noundef nonnull align 8 dereferenceable(8) %0) #3
  ret ptr %call
}

; Function Attrs: mustprogress uwtable
define internal void @"_ZNSt6thread8_InvokerISt5tupleIJZZN12_GLOBAL__N_129Mutex_SignalExitedThread_Test8TestBodyEvENK3$_0clEvEUlvE_EEE9_M_invokeIJLm0EEEEvSt12_Index_tupleIJXspT_EEE"(ptr noundef nonnull align 8 dereferenceable(8) %this) #4 align 2 {
entry:
  %this.addr = alloca ptr, align 8
  store ptr %this, ptr %this.addr, align 8
  %this1 = load ptr, ptr %this.addr, align 8
  %_M_t = getelementptr inbounds %"struct.std::thread::_Invoker.422", ptr %this1, i32 0, i32 0
  %call = call noundef nonnull align 8 dereferenceable(8) ptr @"_ZSt3getILm0EJZZN12_GLOBAL__N_129Mutex_SignalExitedThread_Test8TestBodyEvENK3$_0clEvEUlvE_EEONSt13tuple_elementIXT_ESt5tupleIJDpT0_EEE4typeEOS8_"(ptr noundef nonnull align 8 dereferenceable(8) %_M_t) #3
  call void @"_ZSt8__invokeIZZN12_GLOBAL__N_129Mutex_SignalExitedThread_Test8TestBodyEvENK3$_0clEvEUlvE_JEENSt15__invoke_resultIT_JDpT0_EE4typeEOS5_DpOS6_"(ptr noundef nonnull align 8 dereferenceable(8) %call)
  ret void
}

; Function Attrs: mustprogress uwtable
define internal void @"_ZNSt6thread8_InvokerISt5tupleIJZZN12_GLOBAL__N_129Mutex_SignalExitedThread_Test8TestBodyEvENK3$_0clEvEUlvE_EEEclEv"(ptr noundef nonnull align 8 dereferenceable(8) %this) #4 align 2 {
entry:
  %this.addr = alloca ptr, align 8
  store ptr %this, ptr %this.addr, align 8
  %this1 = load ptr, ptr %this.addr, align 8
  call void @"_ZNSt6thread8_InvokerISt5tupleIJZZN12_GLOBAL__N_129Mutex_SignalExitedThread_Test8TestBodyEvENK3$_0clEvEUlvE_EEE9_M_invokeIJLm0EEEEvSt12_Index_tupleIJXspT_EEE"(ptr noundef nonnull align 8 dereferenceable(8) %this1)
  ret void
}

; Function Attrs: mustprogress uwtable
define internal void @"_ZNSt6thread11_State_implINS_8_InvokerISt5tupleIJZZN12_GLOBAL__N_129Mutex_SignalExitedThread_Test8TestBodyEvENK3$_0clEvEUlvE_EEEEE6_M_runEv"(ptr noundef nonnull align 8 dereferenceable(16) %this) unnamed_addr #4 align 2 {
entry:
  %this.addr = alloca ptr, align 8
  store ptr %this, ptr %this.addr, align 8
  %this1 = load ptr, ptr %this.addr, align 8
  %_M_func = getelementptr inbounds %"struct.std::thread::_State_impl.421", ptr %this1, i32 0, i32 1
  call void @"_ZNSt6thread8_InvokerISt5tupleIJZZN12_GLOBAL__N_129Mutex_SignalExitedThread_Test8TestBodyEvENK3$_0clEvEUlvE_EEEclEv"(ptr noundef nonnull align 8 dereferenceable(8) %_M_func)
  ret void
}