; Function Attrs: mustprogress uwtable
define internal void @"_ZNSt6thread11_State_implINS_8_InvokerISt5tupleIJZZN12_GLOBAL__N_129Mutex_SignalExitedThread_Test8TestBodyEvENK3$_0clEvEUlvE_EEEEE6_M_runEv"(ptr nocapture noundef nonnull readonly align 8 dereferenceable(16) %this) unnamed_addr #3 align 2 {
entry:
  %_M_func = getelementptr inbounds i8, ptr %this, i64 8
  %0 = load ptr, ptr %_M_func, align 8
  tail call void @_ZN4absl5Mutex4LockEv(ptr noundef nonnull align 8 dereferenceable(8) %0)
  %1 = load ptr, ptr %_M_func, align 8
  tail call void @_ZN4absl5Mutex6UnlockEv(ptr noundef nonnull align 8 dereferenceable(8) %1)
  ret void
}